target datalayout = "e-m:e-p270:32:32-p271:32:32-p272:64:64-i64:64-i128:128-f80:128-n8:16:32:64-S128"
target triple = "x86_64-pc-linux-gnu"

%struct.Vmem = type { ptr, i64, i64 }
%struct.BEValue = type { i8, i32, ptr, ptr, ptr }
%struct.GenContext_ = type { i8, ptr, ptr, ptr, ptr, ptr, ptr, ptr, ptr, ptr, ptr, ptr, ptr, ptr, ptr, ptr, ptr, ptr, ptr, ptr, ptr, ptr, ptr, ptr, ptr, ptr, ptr, ptr, ptr, ptr, ptr, ptr, ptr, %struct.anon.85, i32, i32, %struct.DebugContext, ptr, ptr, ptr, %struct.BEValue, i8, %union.SourceSpan, ptr, ptr, ptr, ptr }
%struct.anon.85 = type { ptr, ptr, ptr }
%struct.DebugContext = type { i16, ptr, ptr, %struct.DebugFile_, ptr, ptr, ptr, ptr }
%struct.DebugFile_ = type { i16, ptr }
%union.SourceSpan = type { i64 }
%struct.Expr_ = type { ptr, %union.SourceSpan, i16, %union.anon.29 }
%union.anon.29 = type { %struct.ExprAnySwitch }
%struct.ExprAnySwitch = type { i8, %union.anon.31 }
%union.anon.31 = type { %struct.anon.32 }
%struct.anon.32 = type { ptr, %union.SourceSpan, ptr }
%struct.Type_ = type { i32, ptr, ptr, ptr, %union.anon.97, ptr, ptr, %union.anon.99 }
%union.anon.97 = type { ptr }
%union.anon.99 = type { %struct.TypeFunction }
%struct.TypeFunction = type { ptr, ptr, ptr }
%struct.TypeArray = type { ptr, i32 }
%struct.ExprSubscript = type { i32, %struct.Range }
%struct.Range = type { i8, i32, i32 }

@.str.3 = private unnamed_addr constant [1 x i8] zeroinitializer, align 1
@expr_arena = external global %struct.Vmem, align 8

; Function Attrs: nounwind uwtable
define internal ptr @exprptr(i32 noundef %0) #0 {
  %2 = alloca i32, align 4
  store i32 %0, ptr %2, align 4
  %3 = load ptr, ptr @expr_arena, align 8
  %4 = load i32, ptr %2, align 4
  %5 = zext i32 %4 to i64
  %6 = getelementptr inbounds %struct.Expr_, ptr %3, i64 %5
  ret ptr %6
}

; Function Attrs: nounwind uwtable
define internal void @llvm_emit_vector_subscript(ptr noundef %0, ptr noundef %1, ptr noundef %2) #0 {
  %4 = alloca ptr, align 8
  %5 = alloca i32, align 4
  %6 = alloca ptr, align 8
  %7 = alloca ptr, align 8
  %8 = alloca i64, align 8
  %9 = alloca ptr, align 8
  %10 = alloca ptr, align 8
  %11 = alloca i32, align 4
  %12 = alloca ptr, align 8
  %13 = alloca ptr, align 8
  %14 = alloca i32, align 4
  %15 = alloca ptr, align 8
  %16 = alloca ptr, align 8
  %17 = alloca ptr, align 8
  %18 = alloca ptr, align 8
  %19 = alloca ptr, align 8
  %20 = alloca ptr, align 8
  %21 = alloca ptr, align 8
  store ptr %0, ptr %15, align 8
  store ptr %1, ptr %16, align 8
  store ptr %2, ptr %17, align 8
  %22 = load ptr, ptr %15, align 8
  %23 = load ptr, ptr %16, align 8
  %24 = load ptr, ptr %17, align 8
  %25 = getelementptr inbounds %struct.Expr_, ptr %24, i32 0, i32 3
  %26 = getelementptr inbounds %struct.ExprSubscript, ptr %25, i32 0, i32 0
  %27 = load i32, ptr %26, align 8
  store ptr %22, ptr %9, align 8
  store ptr %23, ptr %10, align 8
  store i32 %27, ptr %11, align 4
  %28 = load ptr, ptr %9, align 8
  %29 = load ptr, ptr %10, align 8
  %30 = load i32, ptr %11, align 4
  %31 = call ptr @exprptr(i32 noundef %30)
  call void @llvm_emit_expr(ptr noundef %28, ptr noundef %29, ptr noundef %31)
  %32 = load ptr, ptr %15, align 8
  %33 = load ptr, ptr %16, align 8
  call void @llvm_value_rvalue(ptr noundef %32, ptr noundef %33)
  %34 = load ptr, ptr %16, align 8
  %35 = getelementptr inbounds %struct.BEValue, ptr %34, i32 0, i32 2
  %36 = load ptr, ptr %35, align 8
  store ptr %36, ptr %18, align 8
  %37 = load ptr, ptr %18, align 8
  %38 = getelementptr inbounds %struct.Type_, ptr %37, i32 0, i32 7
  %39 = getelementptr inbounds %struct.TypeArray, ptr %38, i32 0, i32 0
  %40 = load ptr, ptr %39, align 8
  store ptr %40, ptr %19, align 8
  %41 = load ptr, ptr %16, align 8
  %42 = getelementptr inbounds %struct.BEValue, ptr %41, i32 0, i32 3
  %43 = load ptr, ptr %42, align 8
  store ptr %43, ptr %20, align 8
  %44 = load ptr, ptr %15, align 8
  %45 = load ptr, ptr %16, align 8
  %46 = load ptr, ptr %17, align 8
  %47 = getelementptr inbounds %struct.Expr_, ptr %46, i32 0, i32 3
  %48 = getelementptr inbounds %struct.ExprSubscript, ptr %47, i32 0, i32 1
  %49 = getelementptr inbounds %struct.Range, ptr %48, i32 0, i32 1
  %50 = load i32, ptr %49, align 4
  store ptr %44, ptr %12, align 8
  store ptr %45, ptr %13, align 8
  store i32 %50, ptr %14, align 4
  %51 = load ptr, ptr %12, align 8
  %52 = load ptr, ptr %13, align 8
  %53 = load i32, ptr %14, align 4
  %54 = call ptr @exprptr(i32 noundef %53)
  call void @llvm_emit_expr(ptr noundef %51, ptr noundef %52, ptr noundef %54)
  %55 = load ptr, ptr %15, align 8
  %56 = load ptr, ptr %16, align 8
  call void @llvm_value_rvalue(ptr noundef %55, ptr noundef %56)
  %57 = load ptr, ptr %16, align 8
  %58 = getelementptr inbounds %struct.BEValue, ptr %57, i32 0, i32 3
  %59 = load ptr, ptr %58, align 8
  store ptr %59, ptr %21, align 8
  %60 = load ptr, ptr %17, align 8
  %61 = getelementptr inbounds %struct.Expr_, ptr %60, i32 0, i32 3
  %62 = getelementptr inbounds %struct.ExprSubscript, ptr %61, i32 0, i32 1
  %63 = load i8, ptr %62, align 4
  %64 = and i8 %63, 1
  %65 = trunc i8 %64 to i1
  br i1 %65, label %66, label %107

66:                                               ; preds = %3
  %67 = load ptr, ptr %15, align 8
  %68 = getelementptr inbounds %struct.GenContext_, ptr %67, i32 0, i32 8
  %69 = load ptr, ptr %68, align 8
  %70 = load ptr, ptr %15, align 8
  %71 = load ptr, ptr %16, align 8
  %72 = getelementptr inbounds %struct.BEValue, ptr %71, i32 0, i32 2
  %73 = load ptr, ptr %72, align 8
  %74 = load ptr, ptr %18, align 8
  %75 = getelementptr inbounds %struct.Type_, ptr %74, i32 0, i32 7
  %76 = getelementptr inbounds %struct.TypeArray, ptr %75, i32 0, i32 1
  %77 = load i32, ptr %76, align 8
  %78 = zext i32 %77 to i64
  store ptr %70, ptr %6, align 8
  store ptr %73, ptr %7, align 8
  store i64 %78, ptr %8, align 8
  %79 = load ptr, ptr %7, align 8
  %80 = call ptr @type_lowering(ptr noundef %79)
  store ptr %80, ptr %7, align 8
  %81 = load ptr, ptr %6, align 8
  %82 = load ptr, ptr %7, align 8
  %83 = call ptr @llvm_get_type(ptr noundef %81, ptr noundef %82) #8
  %84 = load i64, ptr %8, align 8
  %85 = load ptr, ptr %7, align 8
  store ptr %85, ptr %4, align 8
  %86 = load ptr, ptr %4, align 8
  %87 = load i32, ptr %86, align 8
  store i32 %87, ptr %5, align 4
  %88 = load i32, ptr %5, align 4
  %89 = icmp eq i32 %88, 31
  br i1 %89, label %90, label %95

90:                                               ; preds = %66
  %91 = load ptr, ptr %4, align 8
  %92 = getelementptr inbounds %struct.Type_, ptr %91, i32 0, i32 1
  %93 = load ptr, ptr %92, align 8
  %94 = load i32, ptr %93, align 8
  store i32 %94, ptr %5, align 4
  br label %95

95:                                               ; preds = %90, %66
  %96 = load i32, ptr %5, align 4
  %97 = icmp uge i32 %96, 3
  br i1 %97, label %98, label %101

98:                                               ; preds = %95
  %99 = load i32, ptr %5, align 4
  %100 = icmp ule i32 %99, 7
  br label %101

101:                                              ; preds = %98, %95
  %102 = phi i1 [ false, %95 ], [ %100, %98 ]
  %103 = zext i1 %102 to i32
  %104 = call ptr @LLVMConstInt(ptr noundef %83, i64 noundef %84, i32 noundef %103) #8
  %105 = load ptr, ptr %21, align 8
  %106 = call ptr @LLVMBuildNUWSub(ptr noundef %69, ptr noundef %104, ptr noundef %105, ptr noundef @.str.3)
  store ptr %106, ptr %21, align 8
  br label %107

107:                                              ; preds = %101, %3
  %108 = load ptr, ptr %16, align 8
  %109 = load ptr, ptr %15, align 8
  %110 = getelementptr inbounds %struct.GenContext_, ptr %109, i32 0, i32 8
  %111 = load ptr, ptr %110, align 8
  %112 = load ptr, ptr %20, align 8
  %113 = load ptr, ptr %21, align 8
  %114 = call ptr @LLVMBuildExtractElement(ptr noundef %111, ptr noundef %112, ptr noundef %113, ptr noundef @.str.3)
  %115 = load ptr, ptr %19, align 8
  call void @llvm_value_set(ptr noundef %108, ptr noundef %114, ptr noundef %115)
  ret void
}