; Function Attrs: nounwind uwtable
define internal fastcc void @llvm_emit_vector_subscript(ptr noundef %0, ptr noundef %1, ptr nocapture noundef readonly %2) unnamed_addr #0 {
  %4 = getelementptr inbounds i8, ptr %2, i64 24
  %5 = load i32, ptr %4, align 8
  %6 = load ptr, ptr @expr_arena, align 8
  %7 = zext i32 %5 to i64
  %8 = getelementptr inbounds %struct.Expr_, ptr %6, i64 %7
  tail call void @llvm_emit_expr(ptr noundef %0, ptr noundef %1, ptr noundef %8)
  tail call void @llvm_value_rvalue(ptr noundef %0, ptr noundef %1) #10
  %9 = getelementptr inbounds i8, ptr %1, i64 8
  %10 = load ptr, ptr %9, align 8
  %11 = getelementptr inbounds i8, ptr %10, i64 56
  %12 = load ptr, ptr %11, align 8
  %13 = getelementptr inbounds i8, ptr %1, i64 16
  %14 = load ptr, ptr %13, align 8
  %15 = getelementptr inbounds i8, ptr %2, i64 28
  %16 = getelementptr inbounds i8, ptr %2, i64 32
  %17 = load i32, ptr %16, align 4
  %18 = load ptr, ptr @expr_arena, align 8
  %19 = zext i32 %17 to i64
  %20 = getelementptr inbounds %struct.Expr_, ptr %18, i64 %19
  tail call void @llvm_emit_expr(ptr noundef %0, ptr noundef %1, ptr noundef %20)
  tail call void @llvm_value_rvalue(ptr noundef %0, ptr noundef %1) #10
  %21 = load ptr, ptr %13, align 8
  %22 = load i8, ptr %15, align 4
  %23 = trunc i8 %22 to i1
  br i1 %23, label %24, label %45

24:                                               ; preds = %3
  %25 = getelementptr inbounds i8, ptr %0, i64 64
  %26 = load ptr, ptr %25, align 8
  %27 = load ptr, ptr %9, align 8
  %28 = getelementptr inbounds i8, ptr %10, i64 64
  %29 = load i32, ptr %28, align 8
  %30 = zext i32 %29 to i64
  %31 = tail call fastcc ptr @type_lowering(ptr noundef %27)
  %32 = tail call ptr @llvm_get_type(ptr noundef %0, ptr noundef %31) #10
  %33 = load i32, ptr %31, align 8
  %34 = icmp eq i32 %33, 31
  br i1 %34, label %35, label %39

35:                                               ; preds = %24
  %36 = getelementptr inbounds i8, ptr %31, i64 8
  %37 = load ptr, ptr %36, align 8
  %38 = load i32, ptr %37, align 8
  br label %39

39:                                               ; preds = %35, %24
  %.040 = phi i32 [ %38, %35 ], [ %33, %24 ]
  %40 = add i32 %.040, -3
  %41 = icmp ult i32 %40, 5
  %42 = zext i1 %41 to i32
  %43 = tail call ptr @LLVMConstInt(ptr noundef %32, i64 noundef %30, i32 noundef %42) #10
  %44 = tail call ptr @LLVMBuildNUWSub(ptr noundef %26, ptr noundef %43, ptr noundef %21, ptr noundef nonnull @.str.3) #10
  br label %45

45:                                               ; preds = %39, %3
  %.0 = phi ptr [ %44, %39 ], [ %21, %3 ]
  %46 = getelementptr inbounds i8, ptr %0, i64 64
  %47 = load ptr, ptr %46, align 8
  %48 = tail call ptr @LLVMBuildExtractElement(ptr noundef %47, ptr noundef %14, ptr noundef %.0, ptr noundef nonnull @.str.3) #10
  tail call void @llvm_value_set(ptr noundef nonnull %1, ptr noundef %48, ptr noundef %12) #10
  ret void
}